target datalayout = "e-m:e-p270:32:32-p271:32:32-p272:64:64-i64:64-i128:128-f80:128-n8:16:32:64-S128"
target triple = "x86_64-pc-linux-gnu"

; Function Attrs: nounwind uwtable
define internal i32 @bn_rsa_fips186_4_find_aux_prob_prime(ptr noundef %0, ptr noundef %1, ptr noundef %2, i32 noundef %3, ptr noundef %4) #0 {
  %6 = alloca i32, align 4
  %7 = alloca ptr, align 8
  %8 = alloca ptr, align 8
  %9 = alloca ptr, align 8
  %10 = alloca i32, align 4
  %11 = alloca ptr, align 8
  %12 = alloca i32, align 4
  %13 = alloca i32, align 4
  %14 = alloca i32, align 4
  %15 = alloca i32, align 4
  store ptr %0, ptr %7, align 8, !tbaa !3
  store ptr %1, ptr %8, align 8, !tbaa !3
  store ptr %2, ptr %9, align 8, !tbaa !10
  store i32 %3, ptr %10, align 4, !tbaa !8
  store ptr %4, ptr %11, align 8, !tbaa !12
  call void @llvm.lifetime.start.p0(i64 4, ptr %12) #3
  store i32 0, ptr %12, align 4, !tbaa !8
  call void @llvm.lifetime.start.p0(i64 4, ptr %13) #3
  store i32 0, ptr %13, align 4, !tbaa !8
  call void @llvm.lifetime.start.p0(i64 4, ptr %14) #3
  store i32 0, ptr %14, align 4, !tbaa !8
  %16 = load ptr, ptr %8, align 8, !tbaa !3
  %17 = load ptr, ptr %7, align 8, !tbaa !3
  %18 = call ptr @BN_copy(ptr noundef %16, ptr noundef %17)
  %19 = icmp eq ptr %18, null
  br i1 %19, label %20, label %21

20:                                               ; preds = %5
  store i32 0, ptr %6, align 4
  store i32 1, ptr %15, align 4
  br label %53

21:                                               ; preds = %5
  %22 = load ptr, ptr %8, align 8, !tbaa !3
  call void @BN_set_flags(ptr noundef %22, i32 noundef 4)
  br label %23

23:                                               ; preds = %46, %21
  %24 = load i32, ptr %13, align 4, !tbaa !8
  %25 = add nsw i32 %24, 1
  store i32 %25, ptr %13, align 4, !tbaa !8
  %26 = load ptr, ptr %11, align 8, !tbaa !12
  %27 = load i32, ptr %13, align 4, !tbaa !8
  %28 = call i32 @BN_GENCB_call(ptr noundef %26, i32 noundef 0, i32 noundef %27)
  %29 = load ptr, ptr %8, align 8, !tbaa !3
  %30 = load i32, ptr %10, align 4, !tbaa !8
  %31 = load ptr, ptr %9, align 8, !tbaa !10
  %32 = load ptr, ptr %11, align 8, !tbaa !12
  %33 = call i32 @ossl_bn_check_generated_prime(ptr noundef %29, i32 noundef %30, ptr noundef %31, ptr noundef %32)
  store i32 %33, ptr %14, align 4, !tbaa !8
  %34 = load i32, ptr %14, align 4, !tbaa !8
  %35 = icmp sgt i32 %34, 0
  br i1 %35, label %36, label %37

36:                                               ; preds = %23
  br label %47

37:                                               ; preds = %23
  %38 = load i32, ptr %14, align 4, !tbaa !8
  %39 = icmp slt i32 %38, 0
  br i1 %39, label %40, label %41

40:                                               ; preds = %37
  br label %51

41:                                               ; preds = %37
  %42 = load ptr, ptr %8, align 8, !tbaa !3
  %43 = call i32 @BN_add_word(ptr noundef %42, i64 noundef 2)
  %44 = icmp ne i32 %43, 0
  br i1 %44, label %46, label %45

45:                                               ; preds = %41
  br label %51

46:                                               ; preds = %41
  br label %23

47:                                               ; preds = %36
  %48 = load ptr, ptr %11, align 8, !tbaa !12
  %49 = load i32, ptr %13, align 4, !tbaa !8
  %50 = call i32 @BN_GENCB_call(ptr noundef %48, i32 noundef 2, i32 noundef %49)
  store i32 1, ptr %12, align 4, !tbaa !8
  br label %51

51:                                               ; preds = %47, %45, %40
  %52 = load i32, ptr %12, align 4, !tbaa !8
  store i32 %52, ptr %6, align 4
  store i32 1, ptr %15, align 4
  br label %53

53:                                               ; preds = %51, %20
  call void @llvm.lifetime.end.p0(i64 4, ptr %14) #3
  call void @llvm.lifetime.end.p0(i64 4, ptr %13) #3
  call void @llvm.lifetime.end.p0(i64 4, ptr %12) #3
  %54 = load i32, ptr %6, align 4
  ret i32 %54
}