; Function Attrs: nounwind uwtable
define internal fastcc range(i32 0, 2) i32 @bn_rsa_fips186_4_find_aux_prob_prime(ptr noundef nonnull %0, ptr noundef nonnull %1, ptr noundef %2, i32 noundef range(i32 0, 45) %3, ptr noundef %4) unnamed_addr #0 {
  %6 = tail call ptr @BN_copy(ptr noundef nonnull %1, ptr noundef nonnull %0) #3
  %7 = icmp eq ptr %6, null
  br i1 %7, label %.loopexit, label %8

8:                                                ; preds = %5
  tail call void @BN_set_flags(ptr noundef nonnull %1, i32 noundef 4) #3
  br label %9

9:                                                ; preds = %16, %8
  %.0 = phi i32 [ 0, %8 ], [ %10, %16 ]
  %10 = add nuw nsw i32 %.0, 1
  %11 = tail call i32 @BN_GENCB_call(ptr noundef %4, i32 noundef 0, i32 noundef %10) #3
  %12 = tail call i32 @ossl_bn_check_generated_prime(ptr noundef nonnull %1, i32 noundef %3, ptr noundef %2, ptr noundef %4) #3
  %13 = icmp sgt i32 %12, 0
  br i1 %13, label %18, label %14

14:                                               ; preds = %9
  %15 = icmp slt i32 %12, 0
  br i1 %15, label %.loopexit, label %16

16:                                               ; preds = %14
  %17 = tail call i32 @BN_add_word(ptr noundef nonnull %1, i64 noundef 2) #3
  %.not = icmp eq i32 %17, 0
  br i1 %.not, label %.loopexit, label %9

18:                                               ; preds = %9
  %19 = tail call i32 @BN_GENCB_call(ptr noundef %4, i32 noundef 2, i32 noundef %10) #3
  br label %.loopexit

.loopexit:                                        ; preds = %14, %16, %18, %5
  %.017 = phi i32 [ 0, %5 ], [ 1, %18 ], [ 0, %16 ], [ 0, %14 ]
  ret i32 %.017
}